target datalayout = "e-m:e-p270:32:32-p271:32:32-p272:64:64-i64:64-i128:128-f80:128-n8:16:32:64-S128"
target triple = "x86_64-pc-linux-gnu"

%struct._e_guid_t = type { i32, i16, i16, [8 x i8] }
%struct._dcerpc_info = type { ptr, i32, i64, i8, i8, i8, i32, i32, i32, i32, i32, i32, i32, i32, ptr, ptr, ptr, ptr, %struct.anon }
%struct.anon = type { i8, ptr, ptr, ptr, i8 }
%struct._dcerpc_call_value = type { %struct._e_guid_t, i16, %struct._e_guid_t, i16, i32, %struct.nstime_t, i32, i32, ptr, ptr, ptr, i32 }
%struct.nstime_t = type { i64, i32 }

@ett_mdssvc_mdssvc_blob = internal global i32 0, align 4
@hf_mdssvc_mdssvc_blob_length = internal global i32 0, align 4
@hf_mdssvc_mdssvc_blob_size = internal global i32 0, align 4
@.str.76 = private unnamed_addr constant [14 x i8] c"afp_spotlight\00", align 1

; Function Attrs: null_pointer_is_valid sspstrong uwtable
define internal i32 @mdssvc_dissect_element_blob_spotlight_blob(ptr noundef %0, i32 noundef %1, ptr noundef %2, ptr noundef %3, ptr noundef %4, ptr noundef %5) #0 {
  %7 = alloca i32, align 4
  %8 = alloca ptr, align 8
  %9 = alloca i32, align 4
  %10 = alloca ptr, align 8
  %11 = alloca ptr, align 8
  %12 = alloca ptr, align 8
  %13 = alloca ptr, align 8
  %14 = alloca ptr, align 8
  %15 = alloca ptr, align 8
  %16 = alloca i32, align 4
  store ptr %0, ptr %8, align 8
  store i32 %1, ptr %9, align 4
  store ptr %2, ptr %10, align 8
  store ptr %3, ptr %11, align 8
  store ptr %4, ptr %12, align 8
  store ptr %5, ptr %13, align 8
  call void @llvm.lifetime.start.p0(i64 8, ptr %14) #3
  call void @llvm.lifetime.start.p0(i64 8, ptr %15) #3
  %17 = load ptr, ptr %12, align 8
  %18 = getelementptr inbounds nuw %struct._dcerpc_info, ptr %17, i32 0, i32 4
  %19 = load i8, ptr %18, align 1, !range !6, !noundef !7
  %20 = trunc i8 %19 to i1
  br i1 %20, label %21, label %23

21:                                               ; preds = %6
  %22 = load i32, ptr %9, align 4
  store i32 %22, ptr %7, align 4
  store i32 1, ptr %16, align 4
  br label %42

23:                                               ; preds = %6
  %24 = call ptr @find_dissector(ptr noundef @.str.76)
  store ptr %24, ptr %15, align 8
  %25 = load ptr, ptr %15, align 8
  %26 = icmp ne ptr %25, null
  br i1 %26, label %27, label %40

27:                                               ; preds = %23
  %28 = load ptr, ptr %8, align 8
  %29 = load i32, ptr %9, align 4
  %30 = add i32 %29, 16
  %31 = call ptr @tvb_new_subset_remaining(ptr noundef %28, i32 noundef %30)
  store ptr %31, ptr %14, align 8
  %32 = load i32, ptr %9, align 4
  %33 = add i32 %32, 16
  %34 = load ptr, ptr %15, align 8
  %35 = load ptr, ptr %14, align 8
  %36 = load ptr, ptr %10, align 8
  %37 = load ptr, ptr %11, align 8
  %38 = call i32 @call_dissector(ptr noundef %34, ptr noundef %35, ptr noundef %36, ptr noundef %37)
  %39 = add i32 %33, %38
  store i32 %39, ptr %7, align 4
  store i32 1, ptr %16, align 4
  br label %42

40:                                               ; preds = %23
  %41 = load i32, ptr %9, align 4
  store i32 %41, ptr %7, align 4
  store i32 1, ptr %16, align 4
  br label %42

42:                                               ; preds = %40, %27, %21
  call void @llvm.lifetime.end.p0(i64 8, ptr %15) #3
  call void @llvm.lifetime.end.p0(i64 8, ptr %14) #3
  %43 = load i32, ptr %7, align 4
  ret i32 %43
}

; Function Attrs: null_pointer_is_valid sspstrong uwtable
define internal i32 @mdssvc_dissect_element_blob_size(ptr noundef %0, i32 noundef %1, ptr noundef %2, ptr noundef %3, ptr noundef %4, ptr noundef %5) #0 {
  %7 = alloca ptr, align 8
  %8 = alloca i32, align 4
  %9 = alloca ptr, align 8
  %10 = alloca ptr, align 8
  %11 = alloca ptr, align 8
  %12 = alloca ptr, align 8
  store ptr %0, ptr %7, align 8
  store i32 %1, ptr %8, align 4
  store ptr %2, ptr %9, align 8
  store ptr %3, ptr %10, align 8
  store ptr %4, ptr %11, align 8
  store ptr %5, ptr %12, align 8
  %13 = load ptr, ptr %7, align 8
  %14 = load i32, ptr %8, align 4
  %15 = load ptr, ptr %9, align 8
  %16 = load ptr, ptr %10, align 8
  %17 = load ptr, ptr %11, align 8
  %18 = load ptr, ptr %12, align 8
  %19 = load i32, ptr @hf_mdssvc_mdssvc_blob_size, align 4
  %20 = call i32 @PIDL_dissect_uint32(ptr noundef %13, i32 noundef %14, ptr noundef %15, ptr noundef %16, ptr noundef %17, ptr noundef %18, i32 noundef %19, i32 noundef 0)
  store i32 %20, ptr %8, align 4
  %21 = load i32, ptr %8, align 4
  ret i32 %21
}

; Function Attrs: null_pointer_is_valid sspstrong uwtable
define internal i32 @mdssvc_dissect_element_blob_length(ptr noundef %0, i32 noundef %1, ptr noundef %2, ptr noundef %3, ptr noundef %4, ptr noundef %5) #0 {
  %7 = alloca ptr, align 8
  %8 = alloca i32, align 4
  %9 = alloca ptr, align 8
  %10 = alloca ptr, align 8
  %11 = alloca ptr, align 8
  %12 = alloca ptr, align 8
  store ptr %0, ptr %7, align 8
  store i32 %1, ptr %8, align 4
  store ptr %2, ptr %9, align 8
  store ptr %3, ptr %10, align 8
  store ptr %4, ptr %11, align 8
  store ptr %5, ptr %12, align 8
  %13 = load ptr, ptr %7, align 8
  %14 = load i32, ptr %8, align 4
  %15 = load ptr, ptr %9, align 8
  %16 = load ptr, ptr %10, align 8
  %17 = load ptr, ptr %11, align 8
  %18 = load ptr, ptr %12, align 8
  %19 = load i32, ptr @hf_mdssvc_mdssvc_blob_length, align 4
  %20 = call i32 @PIDL_dissect_uint32(ptr noundef %13, i32 noundef %14, ptr noundef %15, ptr noundef %16, ptr noundef %17, ptr noundef %18, i32 noundef %19, i32 noundef 0)
  store i32 %20, ptr %8, align 4
  %21 = load i32, ptr %8, align 4
  ret i32 %21
}

; Function Attrs: null_pointer_is_valid sspstrong uwtable
define hidden i32 @mdssvc_dissect_struct_blob(ptr noundef %0, i32 noundef %1, ptr noundef %2, ptr noundef %3, ptr noundef %4, ptr noundef %5, i32 noundef %6, i32 noundef %7) #0 {
  %9 = alloca ptr, align 8
  %10 = alloca i32, align 4
  %11 = alloca ptr, align 8
  %12 = alloca ptr, align 8
  %13 = alloca ptr, align 8
  %14 = alloca ptr, align 8
  %15 = alloca i32, align 4
  %16 = alloca i32, align 4
  %17 = alloca ptr, align 8
  %18 = alloca ptr, align 8
  %19 = alloca i32, align 4
  store ptr %0, ptr %9, align 8
  store i32 %1, ptr %10, align 4
  store ptr %2, ptr %11, align 8
  store ptr %3, ptr %12, align 8
  store ptr %4, ptr %13, align 8
  store ptr %5, ptr %14, align 8
  store i32 %6, ptr %15, align 4
  store i32 %7, ptr %16, align 4
  call void @llvm.lifetime.start.p0(i64 8, ptr %17) #3
  store ptr null, ptr %17, align 8
  call void @llvm.lifetime.start.p0(i64 8, ptr %18) #3
  store ptr null, ptr %18, align 8
  call void @llvm.lifetime.start.p0(i64 4, ptr %19) #3
  %20 = load ptr, ptr %13, align 8
  %21 = getelementptr inbounds nuw %struct._dcerpc_info, ptr %20, i32 0, i32 14
  %22 = load ptr, ptr %21, align 8
  %23 = getelementptr inbounds nuw %struct._dcerpc_call_value, ptr %22, i32 0, i32 11
  %24 = load i32, ptr %23, align 8
  %25 = and i32 %24, 1
  %26 = icmp ne i32 %25, 0
  br i1 %26, label %27, label %42

27:                                               ; preds = %8
  %28 = load ptr, ptr %13, align 8
  %29 = getelementptr inbounds nuw %struct._dcerpc_info, ptr %28, i32 0, i32 4
  %30 = load i8, ptr %29, align 1, !range !6, !noundef !7
  %31 = trunc i8 %30 to i1
  br i1 %31, label %41, label %32

32:                                               ; preds = %27
  %33 = load i32, ptr %10, align 4
  %34 = and i32 %33, 7
  %35 = icmp ne i32 %34, 0
  br i1 %35, label %36, label %40

36:                                               ; preds = %32
  %37 = load i32, ptr %10, align 4
  %38 = and i32 %37, -8
  %39 = add i32 %38, 8
  store i32 %39, ptr %10, align 4
  br label %40

40:                                               ; preds = %36, %32
  br label %41

41:                                               ; preds = %40, %27
  br label %57

42:                                               ; preds = %8
  %43 = load ptr, ptr %13, align 8
  %44 = getelementptr inbounds nuw %struct._dcerpc_info, ptr %43, i32 0, i32 4
  %45 = load i8, ptr %44, align 1, !range !6, !noundef !7
  %46 = trunc i8 %45 to i1
  br i1 %46, label %56, label %47

47:                                               ; preds = %42
  %48 = load i32, ptr %10, align 4
  %49 = and i32 %48, 3
  %50 = icmp ne i32 %49, 0
  br i1 %50, label %51, label %55

51:                                               ; preds = %47
  %52 = load i32, ptr %10, align 4
  %53 = and i32 %52, -4
  %54 = add i32 %53, 4
  store i32 %54, ptr %10, align 4
  br label %55

55:                                               ; preds = %51, %47
  br label %56

56:                                               ; preds = %55, %42
  br label %57

57:                                               ; preds = %56, %41
  %58 = load i32, ptr %10, align 4
  store i32 %58, ptr %19, align 4
  %59 = load ptr, ptr %12, align 8
  %60 = icmp ne ptr %59, null
  br i1 %60, label %61, label %70

61:                                               ; preds = %57
  %62 = load ptr, ptr %12, align 8
  %63 = load i32, ptr %15, align 4
  %64 = load ptr, ptr %9, align 8
  %65 = load i32, ptr %10, align 4
  %66 = call ptr @proto_tree_add_item(ptr noundef %62, i32 noundef %63, ptr noundef %64, i32 noundef %65, i32 noundef -1, i32 noundef 0)
  store ptr %66, ptr %17, align 8
  %67 = load ptr, ptr %17, align 8
  %68 = load i32, ptr @ett_mdssvc_mdssvc_blob, align 4
  %69 = call ptr @proto_item_add_subtree(ptr noundef %67, i32 noundef %68)
  store ptr %69, ptr %18, align 8
  br label %70

70:                                               ; preds = %61, %57
  %71 = load ptr, ptr %9, align 8
  %72 = load i32, ptr %10, align 4
  %73 = load ptr, ptr %11, align 8
  %74 = load ptr, ptr %18, align 8
  %75 = load ptr, ptr %13, align 8
  %76 = load ptr, ptr %14, align 8
  %77 = call i32 @mdssvc_dissect_element_blob_length(ptr noundef %71, i32 noundef %72, ptr noundef %73, ptr noundef %74, ptr noundef %75, ptr noundef %76)
  store i32 %77, ptr %10, align 4
  %78 = load ptr, ptr %9, align 8
  %79 = load i32, ptr %10, align 4
  %80 = load ptr, ptr %11, align 8
  %81 = load ptr, ptr %18, align 8
  %82 = load ptr, ptr %13, align 8
  %83 = load ptr, ptr %14, align 8
  %84 = call i32 @mdssvc_dissect_element_blob_size(ptr noundef %78, i32 noundef %79, ptr noundef %80, ptr noundef %81, ptr noundef %82, ptr noundef %83)
  store i32 %84, ptr %10, align 4
  %85 = load ptr, ptr %9, align 8
  %86 = load i32, ptr %10, align 4
  %87 = load ptr, ptr %11, align 8
  %88 = load ptr, ptr %18, align 8
  %89 = load ptr, ptr %13, align 8
  %90 = load ptr, ptr %14, align 8
  %91 = call i32 @mdssvc_dissect_element_blob_spotlight_blob(ptr noundef %85, i32 noundef %86, ptr noundef %87, ptr noundef %88, ptr noundef %89, ptr noundef %90)
  store i32 %91, ptr %10, align 4
  %92 = load ptr, ptr %17, align 8
  %93 = load i32, ptr %10, align 4
  %94 = load i32, ptr %19, align 4
  %95 = sub i32 %93, %94
  call void @proto_item_set_len(ptr noundef %92, i32 noundef %95)
  %96 = load ptr, ptr %13, align 8
  %97 = getelementptr inbounds nuw %struct._dcerpc_info, ptr %96, i32 0, i32 14
  %98 = load ptr, ptr %97, align 8
  %99 = getelementptr inbounds nuw %struct._dcerpc_call_value, ptr %98, i32 0, i32 11
  %100 = load i32, ptr %99, align 8
  %101 = and i32 %100, 1
  %102 = icmp ne i32 %101, 0
  br i1 %102, label %103, label %142

103:                                              ; preds = %70
  %104 = load ptr, ptr %13, align 8
  %105 = getelementptr inbounds nuw %struct._dcerpc_info, ptr %104, i32 0, i32 14
  %106 = load ptr, ptr %105, align 8
  %107 = getelementptr inbounds nuw %struct._dcerpc_call_value, ptr %106, i32 0, i32 11
  %108 = load i32, ptr %107, align 8
  %109 = and i32 %108, 1
  %110 = icmp ne i32 %109, 0
  br i1 %110, label %111, label %126

111:                                              ; preds = %103
  %112 = load ptr, ptr %13, align 8
  %113 = getelementptr inbounds nuw %struct._dcerpc_info, ptr %112, i32 0, i32 4
  %114 = load i8, ptr %113, align 1, !range !6, !noundef !7
  %115 = trunc i8 %114 to i1
  br i1 %115, label %125, label %116

116:                                              ; preds = %111
  %117 = load i32, ptr %10, align 4
  %118 = and i32 %117, 7
  %119 = icmp ne i32 %118, 0
  br i1 %119, label %120, label %124

120:                                              ; preds = %116
  %121 = load i32, ptr %10, align 4
  %122 = and i32 %121, -8
  %123 = add i32 %122, 8
  store i32 %123, ptr %10, align 4
  br label %124

124:                                              ; preds = %120, %116
  br label %125

125:                                              ; preds = %124, %111
  br label %141

126:                                              ; preds = %103
  %127 = load ptr, ptr %13, align 8
  %128 = getelementptr inbounds nuw %struct._dcerpc_info, ptr %127, i32 0, i32 4
  %129 = load i8, ptr %128, align 1, !range !6, !noundef !7
  %130 = trunc i8 %129 to i1
  br i1 %130, label %140, label %131

131:                                              ; preds = %126
  %132 = load i32, ptr %10, align 4
  %133 = and i32 %132, 3
  %134 = icmp ne i32 %133, 0
  br i1 %134, label %135, label %139

135:                                              ; preds = %131
  %136 = load i32, ptr %10, align 4
  %137 = and i32 %136, -4
  %138 = add i32 %137, 4
  store i32 %138, ptr %10, align 4
  br label %139

139:                                              ; preds = %135, %131
  br label %140

140:                                              ; preds = %139, %126
  br label %141

141:                                              ; preds = %140, %125
  br label %142

142:                                              ; preds = %141, %70
  %143 = load i32, ptr %10, align 4
  call void @llvm.lifetime.end.p0(i64 4, ptr %19) #3
  call void @llvm.lifetime.end.p0(i64 8, ptr %18) #3
  call void @llvm.lifetime.end.p0(i64 8, ptr %17) #3
  ret i32 %143
}