; Function Attrs: null_pointer_is_valid sspstrong uwtable
define hidden i32 @mdssvc_dissect_struct_blob(ptr noundef %0, i32 noundef %1, ptr noundef %2, ptr noundef %3, ptr noundef %4, ptr noundef %5, i32 noundef %6, i32 %7) local_unnamed_addr #0 {
  %9 = getelementptr inbounds nuw i8, ptr %4, i64 64
  %10 = load ptr, ptr %9, align 8
  %11 = getelementptr inbounds nuw i8, ptr %10, i64 96
  %12 = load i32, ptr %11, align 8
  %13 = and i32 %12, 1
  %.not = icmp eq i32 %13, 0
  %14 = getelementptr inbounds nuw i8, ptr %4, i64 25
  %15 = load i8, ptr %14, align 1, !range !6, !noundef !7
  %16 = trunc nuw i8 %15 to i1
  br i1 %.not, label %22, label %17

17:                                               ; preds = %8
  %18 = and i32 %1, 7
  %.not47 = icmp eq i32 %18, 0
  %or.cond = or i1 %.not47, %16
  br i1 %or.cond, label %27, label %19

19:                                               ; preds = %17
  %20 = and i32 %1, -8
  %21 = add i32 %20, 8
  br label %27

22:                                               ; preds = %8
  %23 = and i32 %1, 3
  %.not46 = icmp eq i32 %23, 0
  %or.cond51 = or i1 %.not46, %16
  br i1 %or.cond51, label %27, label %24

24:                                               ; preds = %22
  %25 = and i32 %1, -4
  %26 = add i32 %25, 4
  br label %27

27:                                               ; preds = %22, %24, %17, %19
  %.0 = phi i32 [ %1, %17 ], [ %21, %19 ], [ %1, %22 ], [ %26, %24 ]
  %.not48 = icmp eq ptr %3, null
  br i1 %.not48, label %32, label %28

28:                                               ; preds = %27
  %29 = tail call ptr @proto_tree_add_item(ptr noundef nonnull %3, i32 noundef %6, ptr noundef %0, i32 noundef %.0, i32 noundef -1, i32 noundef 0)
  %30 = load i32, ptr @ett_mdssvc_mdssvc_blob, align 4
  %31 = tail call ptr @proto_item_add_subtree(ptr noundef %29, i32 noundef %30)
  br label %32

32:                                               ; preds = %28, %27
  %.044 = phi ptr [ %29, %28 ], [ null, %27 ]
  %.043 = phi ptr [ %31, %28 ], [ null, %27 ]
  %33 = load i32, ptr @hf_mdssvc_mdssvc_blob_length, align 4
  %34 = tail call i32 @PIDL_dissect_uint32(ptr noundef %0, i32 noundef %.0, ptr noundef %2, ptr noundef %.043, ptr noundef %4, ptr noundef %5, i32 noundef %33, i32 noundef 0)
  %35 = load i32, ptr @hf_mdssvc_mdssvc_blob_size, align 4
  %36 = tail call i32 @PIDL_dissect_uint32(ptr noundef %0, i32 noundef %34, ptr noundef %2, ptr noundef %.043, ptr noundef %4, ptr noundef %5, i32 noundef %35, i32 noundef 0)
  %37 = getelementptr i8, ptr %4, i64 25
  %.val = load i8, ptr %37, align 1, !range !6, !noundef !7
  %38 = trunc nuw i8 %.val to i1
  br i1 %38, label %mdssvc_dissect_element_blob_spotlight_blob.exit, label %39

39:                                               ; preds = %32
  %40 = tail call ptr @find_dissector(ptr noundef nonnull @.str.76)
  %.not.i = icmp eq ptr %40, null
  br i1 %.not.i, label %mdssvc_dissect_element_blob_spotlight_blob.exit, label %41

41:                                               ; preds = %39
  %42 = add i32 %36, 16
  %43 = tail call ptr @tvb_new_subset_remaining(ptr noundef %0, i32 noundef %42)
  %44 = tail call i32 @call_dissector(ptr noundef nonnull %40, ptr noundef %43, ptr noundef %2, ptr noundef %.043)
  %45 = add i32 %44, %42
  br label %mdssvc_dissect_element_blob_spotlight_blob.exit

mdssvc_dissect_element_blob_spotlight_blob.exit:  ; preds = %32, %39, %41
  %.0.i = phi i32 [ %45, %41 ], [ %36, %32 ], [ %36, %39 ]
  %46 = sub i32 %.0.i, %.0
  tail call void @proto_item_set_len(ptr noundef %.044, i32 noundef %46)
  %47 = load ptr, ptr %9, align 8
  %48 = getelementptr inbounds nuw i8, ptr %47, i64 96
  %49 = load i32, ptr %48, align 8
  %50 = and i32 %49, 1
  %.not49 = icmp eq i32 %50, 0
  br i1 %.not49, label %58, label %51

51:                                               ; preds = %mdssvc_dissect_element_blob_spotlight_blob.exit
  %52 = load i8, ptr %37, align 1, !range !6, !noundef !7
  %53 = trunc nuw i8 %52 to i1
  %54 = and i32 %.0.i, 7
  %.not50 = icmp eq i32 %54, 0
  %or.cond52 = or i1 %.not50, %53
  br i1 %or.cond52, label %58, label %55

55:                                               ; preds = %51
  %56 = and i32 %.0.i, -8
  %57 = add i32 %56, 8
  br label %58

58:                                               ; preds = %55, %51, %mdssvc_dissect_element_blob_spotlight_blob.exit
  %.1 = phi i32 [ %.0.i, %51 ], [ %57, %55 ], [ %.0.i, %mdssvc_dissect_element_blob_spotlight_blob.exit ]
  ret i32 %.1
}